target datalayout = "e-m:e-p270:32:32-p271:32:32-p272:64:64-i64:64-i128:128-f80:128-n8:16:32:64-S128"
target triple = "x86_64-pc-linux-gnu"

%struct.SurfaceDataRasInfo = type { %struct.SurfaceDataBounds, ptr, i32, i32, i32, i32, ptr, ptr, ptr, ptr, ptr, ptr, i32, %union.anon.0 }
%struct.SurfaceDataBounds = type { i32, i32, i32, i32 }
%union.anon.0 = type { ptr, [56 x i8] }

; Function Attrs: nounwind uwtable
define hidden void @ByteIndexedBmToIndex8GrayXparBgCopy(ptr noundef %0, ptr noundef %1, i32 noundef %2, i32 noundef %3, i32 noundef %4, ptr noundef %5, ptr noundef %6, ptr noundef %7, ptr noundef %8) #0 {
  %10 = alloca ptr, align 8
  %11 = alloca ptr, align 8
  %12 = alloca i32, align 4
  %13 = alloca i32, align 4
  %14 = alloca i32, align 4
  %15 = alloca ptr, align 8
  %16 = alloca ptr, align 8
  %17 = alloca ptr, align 8
  %18 = alloca ptr, align 8
  %19 = alloca ptr, align 8
  %20 = alloca [256 x i32], align 16
  %21 = alloca ptr, align 8
  %22 = alloca i32, align 4
  %23 = alloca ptr, align 8
  %24 = alloca ptr, align 8
  %25 = alloca i32, align 4
  %26 = alloca i32, align 4
  %27 = alloca i32, align 4
  %28 = alloca i32, align 4
  %29 = alloca i32, align 4
  %30 = alloca i32, align 4
  %31 = alloca ptr, align 8
  %32 = alloca ptr, align 8
  %33 = alloca i32, align 4
  %34 = alloca i32, align 4
  %35 = alloca i32, align 4
  %36 = alloca i32, align 4
  store ptr %0, ptr %10, align 8
  store ptr %1, ptr %11, align 8
  store i32 %2, ptr %12, align 4
  store i32 %3, ptr %13, align 4
  store i32 %4, ptr %14, align 4
  store ptr %5, ptr %15, align 8
  store ptr %6, ptr %16, align 8
  store ptr %7, ptr %17, align 8
  store ptr %8, ptr %18, align 8
  br label %37

37:                                               ; preds = %9
  %38 = load ptr, ptr %15, align 8
  %39 = getelementptr inbounds %struct.SurfaceDataRasInfo, ptr %38, i32 0, i32 6
  %40 = load ptr, ptr %39, align 8
  store ptr %40, ptr %21, align 8
  %41 = load ptr, ptr %15, align 8
  %42 = getelementptr inbounds %struct.SurfaceDataRasInfo, ptr %41, i32 0, i32 5
  %43 = load i32, ptr %42, align 4
  store i32 %43, ptr %22, align 4
  %44 = load ptr, ptr %16, align 8
  %45 = getelementptr inbounds %struct.SurfaceDataRasInfo, ptr %44, i32 0, i32 11
  %46 = load ptr, ptr %45, align 8
  store ptr %46, ptr %23, align 8
  %47 = load i32, ptr %22, align 4
  %48 = icmp uge i32 %47, 256
  br i1 %48, label %49, label %50

49:                                               ; preds = %37
  store i32 256, ptr %22, align 4
  br label %64

50:                                               ; preds = %37
  %51 = load i32, ptr %22, align 4
  %52 = zext i32 %51 to i64
  %53 = getelementptr inbounds [256 x i32], ptr %20, i64 0, i64 %52
  store ptr %53, ptr %24, align 8
  br label %54

54:                                               ; preds = %58, %50
  %55 = load i32, ptr %14, align 4
  %56 = load ptr, ptr %24, align 8
  %57 = getelementptr inbounds i32, ptr %56, i64 0
  store i32 %55, ptr %57, align 4
  br label %58

58:                                               ; preds = %54
  %59 = load ptr, ptr %24, align 8
  %60 = getelementptr inbounds i32, ptr %59, i32 1
  store ptr %60, ptr %24, align 8
  %61 = getelementptr inbounds [256 x i32], ptr %20, i64 0, i64 256
  %62 = icmp ult ptr %60, %61
  br i1 %62, label %54, label %63, !llvm.loop !44

63:                                               ; preds = %58
  br label %64

64:                                               ; preds = %63, %49
  br label %65

65:                                               ; preds = %64
  store i32 0, ptr %25, align 4
  br label %66

66:                                               ; preds = %119, %65
  br label %67

67:                                               ; preds = %66
  %68 = load ptr, ptr %21, align 8
  %69 = load i32, ptr %25, align 4
  %70 = zext i32 %69 to i64
  %71 = getelementptr inbounds i32, ptr %68, i64 %70
  %72 = load i32, ptr %71, align 4
  store i32 %72, ptr %26, align 4
  %73 = load i32, ptr %26, align 4
  %74 = icmp slt i32 %73, 0
  br i1 %74, label %75, label %112

75:                                               ; preds = %67
  br label %76

76:                                               ; preds = %75
  br label %77

77:                                               ; preds = %76
  %78 = load i32, ptr %26, align 4
  %79 = and i32 %78, 255
  store i32 %79, ptr %29, align 4
  %80 = load i32, ptr %26, align 4
  %81 = ashr i32 %80, 8
  %82 = and i32 %81, 255
  store i32 %82, ptr %28, align 4
  %83 = load i32, ptr %26, align 4
  %84 = ashr i32 %83, 16
  %85 = and i32 %84, 255
  store i32 %85, ptr %27, align 4
  br label %86

86:                                               ; preds = %77
  br label %87

87:                                               ; preds = %86
  %88 = load i32, ptr %27, align 4
  %89 = mul nsw i32 77, %88
  %90 = load i32, ptr %28, align 4
  %91 = mul nsw i32 150, %90
  %92 = add nsw i32 %89, %91
  %93 = load i32, ptr %29, align 4
  %94 = mul nsw i32 29, %93
  %95 = add nsw i32 %92, %94
  %96 = add nsw i32 %95, 128
  %97 = sdiv i32 %96, 256
  %98 = trunc i32 %97 to i8
  %99 = zext i8 %98 to i32
  store i32 %99, ptr %30, align 4
  %100 = load ptr, ptr %23, align 8
  %101 = load i32, ptr %30, align 4
  %102 = sext i32 %101 to i64
  %103 = getelementptr inbounds i32, ptr %100, i64 %102
  %104 = load i32, ptr %103, align 4
  %105 = trunc i32 %104 to i8
  %106 = zext i8 %105 to i32
  %107 = load i32, ptr %25, align 4
  %108 = zext i32 %107 to i64
  %109 = getelementptr inbounds [256 x i32], ptr %20, i64 0, i64 %108
  store i32 %106, ptr %109, align 4
  br label %110

110:                                              ; preds = %87
  br label %111

111:                                              ; preds = %110
  br label %117

112:                                              ; preds = %67
  %113 = load i32, ptr %14, align 4
  %114 = load i32, ptr %25, align 4
  %115 = zext i32 %114 to i64
  %116 = getelementptr inbounds [256 x i32], ptr %20, i64 0, i64 %115
  store i32 %113, ptr %116, align 4
  br label %117

117:                                              ; preds = %112, %111
  br label %118

118:                                              ; preds = %117
  br label %119

119:                                              ; preds = %118
  %120 = load i32, ptr %25, align 4
  %121 = add i32 %120, 1
  store i32 %121, ptr %25, align 4
  %122 = load i32, ptr %22, align 4
  %123 = icmp ult i32 %121, %122
  br i1 %123, label %66, label %124, !llvm.loop !45

124:                                              ; preds = %119
  br label %125

125:                                              ; preds = %124
  br label %126

126:                                              ; preds = %125
  br label %127

127:                                              ; preds = %126
  %128 = load ptr, ptr %10, align 8
  store ptr %128, ptr %31, align 8
  %129 = load ptr, ptr %11, align 8
  store ptr %129, ptr %32, align 8
  %130 = load ptr, ptr %15, align 8
  %131 = getelementptr inbounds %struct.SurfaceDataRasInfo, ptr %130, i32 0, i32 4
  %132 = load i32, ptr %131, align 8
  store i32 %132, ptr %33, align 4
  %133 = load ptr, ptr %16, align 8
  %134 = getelementptr inbounds %struct.SurfaceDataRasInfo, ptr %133, i32 0, i32 4
  %135 = load i32, ptr %134, align 8
  store i32 %135, ptr %34, align 4
  %136 = load ptr, ptr %16, align 8
  %137 = getelementptr inbounds %struct.SurfaceDataRasInfo, ptr %136, i32 0, i32 11
  %138 = load ptr, ptr %137, align 8
  store ptr %138, ptr %19, align 8
  %139 = load i32, ptr %12, align 4
  %140 = mul i32 %139, 1
  %141 = load i32, ptr %33, align 4
  %142 = sub i32 %141, %140
  store i32 %142, ptr %33, align 4
  %143 = load i32, ptr %12, align 4
  %144 = mul i32 %143, 1
  %145 = load i32, ptr %34, align 4
  %146 = sub i32 %145, %144
  store i32 %146, ptr %34, align 4
  br label %147

147:                                              ; preds = %187, %127
  %148 = load i32, ptr %12, align 4
  store i32 %148, ptr %35, align 4
  br label %149

149:                                              ; preds = %170, %147
  br label %150

150:                                              ; preds = %149
  %151 = load ptr, ptr %31, align 8
  %152 = getelementptr inbounds i8, ptr %151, i64 0
  %153 = load i8, ptr %152, align 1
  %154 = zext i8 %153 to i64
  %155 = getelementptr inbounds [256 x i32], ptr %20, i64 0, i64 %154
  %156 = load i32, ptr %155, align 4
  store i32 %156, ptr %36, align 4
  %157 = load i32, ptr %36, align 4
  %158 = trunc i32 %157 to i8
  %159 = load ptr, ptr %32, align 8
  %160 = getelementptr inbounds i8, ptr %159, i64 0
  store i8 %158, ptr %160, align 1
  br label %161

161:                                              ; preds = %150
  %162 = load ptr, ptr %31, align 8
  %163 = ptrtoint ptr %162 to i64
  %164 = add nsw i64 %163, 1
  %165 = inttoptr i64 %164 to ptr
  store ptr %165, ptr %31, align 8
  %166 = load ptr, ptr %32, align 8
  %167 = ptrtoint ptr %166 to i64
  %168 = add nsw i64 %167, 1
  %169 = inttoptr i64 %168 to ptr
  store ptr %169, ptr %32, align 8
  br label %170

170:                                              ; preds = %161
  %171 = load i32, ptr %35, align 4
  %172 = add i32 %171, -1
  store i32 %172, ptr %35, align 4
  %173 = icmp ugt i32 %172, 0
  br i1 %173, label %149, label %174, !llvm.loop !46

174:                                              ; preds = %170
  %175 = load ptr, ptr %31, align 8
  %176 = ptrtoint ptr %175 to i64
  %177 = load i32, ptr %33, align 4
  %178 = sext i32 %177 to i64
  %179 = add nsw i64 %176, %178
  %180 = inttoptr i64 %179 to ptr
  store ptr %180, ptr %31, align 8
  %181 = load ptr, ptr %32, align 8
  %182 = ptrtoint ptr %181 to i64
  %183 = load i32, ptr %34, align 4
  %184 = sext i32 %183 to i64
  %185 = add nsw i64 %182, %184
  %186 = inttoptr i64 %185 to ptr
  store ptr %186, ptr %32, align 8
  br label %187

187:                                              ; preds = %174
  %188 = load i32, ptr %13, align 4
  %189 = add i32 %188, -1
  store i32 %189, ptr %13, align 4
  %190 = icmp ugt i32 %189, 0
  br i1 %190, label %147, label %191, !llvm.loop !47

191:                                              ; preds = %187
  br label %192

192:                                              ; preds = %191
  ret void
}