; Function Attrs: nofree norecurse nosync nounwind memory(readwrite, inaccessiblemem: none) uwtable
define hidden void @ByteIndexedBmToIndex8GrayXparBgCopy(ptr noundef %0, ptr noundef %1, i32 noundef %2, i32 noundef %3, i32 noundef %4, ptr nocapture noundef readonly %5, ptr nocapture noundef readonly %6, ptr nocapture readnone %7, ptr nocapture readnone %8) #0 {
  %10 = alloca [256 x i32], align 16
  %11 = getelementptr inbounds i8, ptr %5, i64 40
  %12 = load ptr, ptr %11, align 8
  %13 = getelementptr inbounds i8, ptr %5, i64 36
  %14 = load i32, ptr %13, align 4
  %15 = getelementptr inbounds i8, ptr %6, i64 80
  %16 = load ptr, ptr %15, align 8
  %17 = icmp ugt i32 %14, 255
  br i1 %17, label %.loopexit, label %18

18:                                               ; preds = %9
  %19 = shl nuw nsw i32 %14, 2
  %.idx = zext nneg i32 %19 to i64
  br label %20

20:                                               ; preds = %20, %18
  %.049.idx = phi i64 [ %.idx, %18 ], [ %.049.add, %20 ]
  %.049.ptr = getelementptr inbounds i8, ptr %10, i64 %.049.idx
  store i32 %4, ptr %.049.ptr, align 4
  %.049.add = add nuw nsw i64 %.049.idx, 4
  %21 = icmp ult i64 %.049.idx, 1020
  br i1 %21, label %20, label %.loopexit, !llvm.loop !41

.loopexit:                                        ; preds = %20, %9
  %.048 = phi i32 [ 256, %9 ], [ %14, %20 ]
  %umax = tail call i32 @llvm.umax.i32(i32 %.048, i32 1)
  %wide.trip.count = zext nneg i32 %umax to i64
  br label %22

22:                                               ; preds = %43, %.loopexit
  %indvars.iv = phi i64 [ %indvars.iv.next, %43 ], [ 0, %.loopexit ]
  %23 = getelementptr inbounds i32, ptr %12, i64 %indvars.iv
  %24 = load i32, ptr %23, align 4
  %25 = icmp slt i32 %24, 0
  br i1 %25, label %26, label %43

26:                                               ; preds = %22
  %27 = and i32 %24, 255
  %28 = lshr i32 %24, 8
  %29 = and i32 %28, 255
  %30 = lshr i32 %24, 16
  %31 = and i32 %30, 255
  %32 = mul nuw nsw i32 %31, 77
  %33 = mul nuw nsw i32 %29, 150
  %34 = mul nuw nsw i32 %27, 29
  %35 = add nuw nsw i32 %34, 128
  %36 = add nuw nsw i32 %35, %33
  %37 = add nuw nsw i32 %36, %32
  %38 = lshr i32 %37, 8
  %39 = zext nneg i32 %38 to i64
  %40 = getelementptr inbounds i32, ptr %16, i64 %39
  %41 = load i32, ptr %40, align 4
  %42 = and i32 %41, 255
  br label %43

43:                                               ; preds = %22, %26
  %.sink = phi i32 [ %42, %26 ], [ %4, %22 ]
  %44 = getelementptr inbounds [256 x i32], ptr %10, i64 0, i64 %indvars.iv
  store i32 %.sink, ptr %44, align 4
  %indvars.iv.next = add nuw nsw i64 %indvars.iv, 1
  %exitcond.not = icmp eq i64 %indvars.iv.next, %wide.trip.count
  br i1 %exitcond.not, label %45, label %22, !llvm.loop !42

45:                                               ; preds = %43
  %46 = getelementptr inbounds i8, ptr %5, i64 32
  %47 = load i32, ptr %46, align 8
  %48 = getelementptr inbounds i8, ptr %6, i64 32
  %49 = load i32, ptr %48, align 8
  %50 = sub i32 %47, %2
  %51 = sub i32 %49, %2
  %52 = sext i32 %50 to i64
  %53 = sext i32 %51 to i64
  br label %54

54:                                               ; preds = %68, %45
  %.046 = phi ptr [ %0, %45 ], [ %70, %68 ]
  %.045 = phi ptr [ %1, %45 ], [ %72, %68 ]
  %.0 = phi i32 [ %3, %45 ], [ %73, %68 ]
  br label %55

55:                                               ; preds = %55, %54
  %.147 = phi ptr [ %.046, %54 ], [ %63, %55 ]
  %.1 = phi ptr [ %.045, %54 ], [ %66, %55 ]
  %.044 = phi i32 [ %2, %54 ], [ %67, %55 ]
  %56 = load i8, ptr %.147, align 1
  %57 = zext i8 %56 to i64
  %58 = getelementptr inbounds [256 x i32], ptr %10, i64 0, i64 %57
  %59 = load i32, ptr %58, align 4
  %60 = trunc i32 %59 to i8
  store i8 %60, ptr %.1, align 1
  %61 = ptrtoint ptr %.147 to i64
  %62 = add nsw i64 %61, 1
  %63 = inttoptr i64 %62 to ptr
  %64 = ptrtoint ptr %.1 to i64
  %65 = add nsw i64 %64, 1
  %66 = inttoptr i64 %65 to ptr
  %67 = add i32 %.044, -1
  %.not = icmp eq i32 %67, 0
  br i1 %.not, label %68, label %55, !llvm.loop !43

68:                                               ; preds = %55
  %69 = add nsw i64 %62, %52
  %70 = inttoptr i64 %69 to ptr
  %71 = add nsw i64 %65, %53
  %72 = inttoptr i64 %71 to ptr
  %73 = add i32 %.0, -1
  %.not56 = icmp eq i32 %73, 0
  br i1 %.not56, label %74, label %54, !llvm.loop !44

74:                                               ; preds = %68
  ret void
}